target datalayout = "e-m:e-p270:32:32-p271:32:32-p272:64:64-i64:64-i128:128-f80:128-n8:16:32:64-S128"
target triple = "x86_64-pc-linux-gnu"

%union.pthread_mutex_t = type { %struct.__pthread_mutex_s }
%struct.__pthread_mutex_s = type { i32, i32, i32, i32, i32, i16, i16, %struct.__pthread_internal_list }
%struct.__pthread_internal_list = type { ptr, ptr }
%struct.kvs_comm = type { ptr, i32, ptr, ptr, ptr }

@kvs_comm_cnt = internal global i32 0, align 4
@kvs_comm_ptr = internal global ptr null, align 8
@kvs_mutex = internal global %union.pthread_mutex_t zeroinitializer, align 8
@.str.2 = private unnamed_addr constant [29 x i8] c"%s: pthread_mutex_lock(): %m\00", align 1
@.str.3 = private unnamed_addr constant [31 x i8] c"%s: pthread_mutex_unlock(): %m\00", align 1
@__func__.pmi_kvs_free = private unnamed_addr constant [13 x i8] c"pmi_kvs_free\00", align 1

; Function Attrs: nounwind uwtable
define internal void @_free_kvs_comm(ptr noundef %0) #0 {
  %2 = alloca ptr, align 8
  %3 = alloca i32, align 4
  %4 = alloca i32, align 4
  store ptr %0, ptr %2, align 8
  call void @llvm.lifetime.start.p0(i64 4, ptr %3) #9
  %5 = load ptr, ptr %2, align 8
  %6 = icmp eq ptr %5, null
  br i1 %6, label %7, label %8

7:                                                ; preds = %1
  store i32 1, ptr %4, align 4
  br label %40

8:                                                ; preds = %1
  store i32 0, ptr %3, align 4
  br label %9

9:                                                ; preds = %28, %8
  %10 = load i32, ptr %3, align 4
  %11 = load ptr, ptr %2, align 8
  %12 = getelementptr inbounds nuw %struct.kvs_comm, ptr %11, i32 0, i32 1
  %13 = load i32, ptr %12, align 8
  %14 = icmp ult i32 %10, %13
  br i1 %14, label %15, label %31

15:                                               ; preds = %9
  %16 = load ptr, ptr %2, align 8
  %17 = getelementptr inbounds nuw %struct.kvs_comm, ptr %16, i32 0, i32 2
  %18 = load ptr, ptr %17, align 8
  %19 = load i32, ptr %3, align 4
  %20 = sext i32 %19 to i64
  %21 = getelementptr inbounds ptr, ptr %18, i64 %20
  call void @slurm_xfree(ptr noundef %21)
  %22 = load ptr, ptr %2, align 8
  %23 = getelementptr inbounds nuw %struct.kvs_comm, ptr %22, i32 0, i32 3
  %24 = load ptr, ptr %23, align 8
  %25 = load i32, ptr %3, align 4
  %26 = sext i32 %25 to i64
  %27 = getelementptr inbounds ptr, ptr %24, i64 %26
  call void @slurm_xfree(ptr noundef %27)
  br label %28

28:                                               ; preds = %15
  %29 = load i32, ptr %3, align 4
  %30 = add nsw i32 %29, 1
  store i32 %30, ptr %3, align 4
  br label %9, !llvm.loop !17

31:                                               ; preds = %9
  %32 = load ptr, ptr %2, align 8
  %33 = getelementptr inbounds nuw %struct.kvs_comm, ptr %32, i32 0, i32 4
  call void @slurm_xfree(ptr noundef %33)
  %34 = load ptr, ptr %2, align 8
  %35 = getelementptr inbounds nuw %struct.kvs_comm, ptr %34, i32 0, i32 0
  call void @slurm_xfree(ptr noundef %35)
  %36 = load ptr, ptr %2, align 8
  %37 = getelementptr inbounds nuw %struct.kvs_comm, ptr %36, i32 0, i32 2
  call void @slurm_xfree(ptr noundef %37)
  %38 = load ptr, ptr %2, align 8
  %39 = getelementptr inbounds nuw %struct.kvs_comm, ptr %38, i32 0, i32 3
  call void @slurm_xfree(ptr noundef %39)
  call void @slurm_xfree(ptr noundef %2)
  store i32 0, ptr %4, align 4
  br label %40

40:                                               ; preds = %31, %7
  call void @llvm.lifetime.end.p0(i64 4, ptr %3) #9
  %41 = load i32, ptr %4, align 4
  switch i32 %41, label %43 [
    i32 0, label %42
    i32 1, label %42
  ]

42:                                               ; preds = %40, %40
  ret void

43:                                               ; preds = %40
  unreachable
}

; Function Attrs: nounwind uwtable
define dso_local void @pmi_kvs_free() #0 {
  %1 = alloca i32, align 4
  %2 = alloca i32, align 4
  %3 = alloca i32, align 4
  call void @llvm.lifetime.start.p0(i64 4, ptr %1) #9
  br label %4

4:                                                ; preds = %0
  call void @llvm.lifetime.start.p0(i64 4, ptr %2) #9
  %5 = call i32 @pthread_mutex_lock(ptr noundef @kvs_mutex) #9
  store i32 %5, ptr %2, align 4
  %6 = load i32, ptr %2, align 4
  %7 = icmp ne i32 %6, 0
  br i1 %7, label %8, label %11

8:                                                ; preds = %4
  %9 = load i32, ptr %2, align 4
  %10 = call ptr @__errno_location() #10
  store i32 %9, ptr %10, align 4
  call void (ptr, ...) @fatal_abort(ptr noundef @.str.2, ptr noundef @__func__.pmi_kvs_free) #11
  unreachable

11:                                               ; preds = %4
  call void @llvm.lifetime.end.p0(i64 4, ptr %2) #9
  br label %12

12:                                               ; preds = %11
  br label %13

13:                                               ; preds = %12
  store i32 0, ptr %1, align 4
  br label %14

14:                                               ; preds = %24, %13
  %15 = load i32, ptr %1, align 4
  %16 = load i32, ptr @kvs_comm_cnt, align 4
  %17 = icmp slt i32 %15, %16
  br i1 %17, label %18, label %27

18:                                               ; preds = %14
  %19 = load ptr, ptr @kvs_comm_ptr, align 8
  %20 = load i32, ptr %1, align 4
  %21 = sext i32 %20 to i64
  %22 = getelementptr inbounds ptr, ptr %19, i64 %21
  %23 = load ptr, ptr %22, align 8
  call void @_free_kvs_comm(ptr noundef %23)
  br label %24

24:                                               ; preds = %18
  %25 = load i32, ptr %1, align 4
  %26 = add nsw i32 %25, 1
  store i32 %26, ptr %1, align 4
  br label %14, !llvm.loop !16

27:                                               ; preds = %14
  call void @slurm_xfree(ptr noundef @kvs_comm_ptr)
  store i32 0, ptr @kvs_comm_cnt, align 4
  br label %28

28:                                               ; preds = %27
  call void @llvm.lifetime.start.p0(i64 4, ptr %3) #9
  %29 = call i32 @pthread_mutex_unlock(ptr noundef @kvs_mutex) #9
  store i32 %29, ptr %3, align 4
  %30 = load i32, ptr %3, align 4
  %31 = icmp ne i32 %30, 0
  br i1 %31, label %32, label %35

32:                                               ; preds = %28
  %33 = load i32, ptr %3, align 4
  %34 = call ptr @__errno_location() #10
  store i32 %33, ptr %34, align 4
  call void (ptr, ...) @fatal_abort(ptr noundef @.str.3, ptr noundef @__func__.pmi_kvs_free) #11
  unreachable

35:                                               ; preds = %28
  call void @llvm.lifetime.end.p0(i64 4, ptr %3) #9
  br label %36

36:                                               ; preds = %35
  br label %37

37:                                               ; preds = %36
  call void @llvm.lifetime.end.p0(i64 4, ptr %1) #9
  ret void
}