; Function Attrs: nounwind uwtable
define dso_local void @pmi_kvs_free() local_unnamed_addr #0 {
  %1 = alloca ptr, align 8
  %2 = tail call i32 @pthread_mutex_lock(ptr noundef nonnull @kvs_mutex) #12
  %.not = icmp eq i32 %2, 0
  br i1 %.not, label %.preheader, label %5

.preheader:                                       ; preds = %0
  %3 = load i32, ptr @kvs_comm_cnt, align 4
  %4 = icmp sgt i32 %3, 0
  br i1 %4, label %.lr.ph.preheader, label %._crit_edge

.lr.ph.preheader:                                 ; preds = %.preheader
  %.pre12 = load ptr, ptr @kvs_comm_ptr, align 8
  br label %.lr.ph

5:                                                ; preds = %0
  %6 = tail call ptr @__errno_location() #13
  store i32 %2, ptr %6, align 4
  tail call void (ptr, ...) @fatal_abort(ptr noundef nonnull @.str.2, ptr noundef nonnull @__func__.pmi_kvs_free) #14
  unreachable

.lr.ph:                                           ; preds = %.lr.ph.preheader, %_free_kvs_comm.exit
  %7 = phi i32 [ %3, %.lr.ph.preheader ], [ %27, %_free_kvs_comm.exit ]
  %8 = phi ptr [ %.pre12, %.lr.ph.preheader ], [ %28, %_free_kvs_comm.exit ]
  %indvars.iv = phi i64 [ 0, %.lr.ph.preheader ], [ %indvars.iv.next, %_free_kvs_comm.exit ]
  %9 = getelementptr inbounds nuw ptr, ptr %8, i64 %indvars.iv
  %10 = load ptr, ptr %9, align 8
  call void @llvm.lifetime.start.p0(i64 8, ptr nonnull %1)
  store ptr %10, ptr %1, align 8
  %11 = icmp eq ptr %10, null
  br i1 %11, label %_free_kvs_comm.exit, label %.preheader.i

.preheader.i:                                     ; preds = %.lr.ph
  %12 = getelementptr inbounds nuw i8, ptr %10, i64 8
  %13 = load i32, ptr %12, align 8
  %.not.i = icmp eq i32 %13, 0
  br i1 %.not.i, label %._crit_edge.i, label %.lr.ph.i

.lr.ph.i:                                         ; preds = %.preheader.i
  %14 = getelementptr inbounds nuw i8, ptr %10, i64 16
  %15 = getelementptr inbounds nuw i8, ptr %10, i64 24
  br label %16

16:                                               ; preds = %16, %.lr.ph.i
  %indvars.iv.i = phi i64 [ 0, %.lr.ph.i ], [ %indvars.iv.next.i, %16 ]
  %17 = load ptr, ptr %14, align 8
  %18 = getelementptr inbounds nuw ptr, ptr %17, i64 %indvars.iv.i
  call void @slurm_xfree(ptr noundef %18) #12
  %19 = load ptr, ptr %15, align 8
  %20 = getelementptr inbounds nuw ptr, ptr %19, i64 %indvars.iv.i
  call void @slurm_xfree(ptr noundef %20) #12
  %indvars.iv.next.i = add nuw nsw i64 %indvars.iv.i, 1
  %21 = load i32, ptr %12, align 8
  %22 = zext i32 %21 to i64
  %23 = icmp samesign ult i64 %indvars.iv.next.i, %22
  br i1 %23, label %16, label %._crit_edge.i, !llvm.loop !16

._crit_edge.i:                                    ; preds = %16, %.preheader.i
  %24 = getelementptr inbounds nuw i8, ptr %10, i64 32
  call void @slurm_xfree(ptr noundef nonnull %24) #12
  call void @slurm_xfree(ptr noundef nonnull %10) #12
  %25 = getelementptr inbounds nuw i8, ptr %10, i64 16
  call void @slurm_xfree(ptr noundef nonnull %25) #12
  %26 = getelementptr inbounds nuw i8, ptr %10, i64 24
  call void @slurm_xfree(ptr noundef nonnull %26) #12
  call void @slurm_xfree(ptr noundef nonnull %1) #12
  %.pre = load ptr, ptr @kvs_comm_ptr, align 8
  %.pre13 = load i32, ptr @kvs_comm_cnt, align 4
  br label %_free_kvs_comm.exit

_free_kvs_comm.exit:                              ; preds = %.lr.ph, %._crit_edge.i
  %27 = phi i32 [ %7, %.lr.ph ], [ %.pre13, %._crit_edge.i ]
  %28 = phi ptr [ %8, %.lr.ph ], [ %.pre, %._crit_edge.i ]
  call void @llvm.lifetime.end.p0(i64 8, ptr nonnull %1)
  %indvars.iv.next = add nuw nsw i64 %indvars.iv, 1
  %29 = sext i32 %27 to i64
  %30 = icmp slt i64 %indvars.iv.next, %29
  br i1 %30, label %.lr.ph, label %._crit_edge, !llvm.loop !17

._crit_edge:                                      ; preds = %_free_kvs_comm.exit, %.preheader
  call void @slurm_xfree(ptr noundef nonnull @kvs_comm_ptr) #12
  store i32 0, ptr @kvs_comm_cnt, align 4
  %31 = call i32 @pthread_mutex_unlock(ptr noundef nonnull @kvs_mutex) #12
  %.not9 = icmp eq i32 %31, 0
  br i1 %.not9, label %34, label %32

32:                                               ; preds = %._crit_edge
  %33 = tail call ptr @__errno_location() #13
  store i32 %31, ptr %33, align 4
  call void (ptr, ...) @fatal_abort(ptr noundef nonnull @.str.3, ptr noundef nonnull @__func__.pmi_kvs_free) #14
  unreachable

34:                                               ; preds = %._crit_edge
  ret void
}